target datalayout = "e-m:e-p270:32:32-p271:32:32-p272:64:64-i64:64-i128:128-f80:128-n8:16:32:64-S128"
target triple = "x86_64-pc-linux-gnu"

%struct.dlist_head = type { %struct.dlist_node }
%struct.dlist_node = type { ptr, ptr }
%struct.pg_atomic_uint32 = type { i32 }
%struct.PGPROC = type { %struct.dlist_node, ptr, ptr, i32, %struct.Latch, i32, i32, i32, i32, %struct.anon, i32, i32, i32, i8, i8, i8, i8, %struct.proclist_node, %struct.proclist_node, ptr, ptr, i32, i32, %struct.pg_atomic_uint64, i32, i8, i64, i32, %struct.dlist_node, [16 x %struct.dlist_head], %struct.XidCacheStatus, %struct.XidCache, i8, %struct.pg_atomic_uint32, i32, i32, i8, %struct.pg_atomic_uint32, i32, i32, i64, i64, %struct.LWLock, ptr, ptr, i8, i32, ptr, %struct.dlist_head, %struct.dlist_node }
%struct.Latch = type { i32, i32, i8, i32 }
%struct.anon = type { i32, i32 }
%struct.proclist_node = type { i32, i32 }
%struct.pg_atomic_uint64 = type { i64 }
%struct.XidCacheStatus = type { i8, i8 }
%struct.XidCache = type { [64 x i32] }
%struct.LWLock = type { i16, %struct.pg_atomic_uint32, %struct.proclist_head }
%struct.proclist_head = type { i32, i32 }

@AuxiliaryProcs = internal global ptr null, align 8

; Function Attrs: nounwind uwtable
define dso_local ptr @AuxiliaryPidGetProc(i32 noundef %0) #0 {
  %2 = alloca ptr, align 8
  %3 = alloca i32, align 4
  %4 = alloca ptr, align 8
  %5 = alloca i32, align 4
  %6 = alloca i32, align 4
  %7 = alloca ptr, align 8
  store i32 %0, ptr %3, align 4
  call void @llvm.lifetime.start.p0(i64 8, ptr %4) #10
  store ptr null, ptr %4, align 8
  call void @llvm.lifetime.start.p0(i64 4, ptr %5) #10
  %8 = load i32, ptr %3, align 4
  %9 = icmp eq i32 %8, 0
  br i1 %9, label %10, label %11

10:                                               ; preds = %1
  store ptr null, ptr %2, align 8
  store i32 1, ptr %6, align 4
  br label %36

11:                                               ; preds = %1
  store i32 0, ptr %5, align 4
  br label %12

12:                                               ; preds = %31, %11
  %13 = load i32, ptr %5, align 4
  %14 = icmp slt i32 %13, 6
  br i1 %14, label %15, label %34

15:                                               ; preds = %12
  call void @llvm.lifetime.start.p0(i64 8, ptr %7) #10
  %16 = load ptr, ptr @AuxiliaryProcs, align 8
  %17 = load i32, ptr %5, align 4
  %18 = sext i32 %17 to i64
  %19 = getelementptr inbounds %struct.PGPROC, ptr %16, i64 %18
  store ptr %19, ptr %7, align 8
  %20 = load ptr, ptr %7, align 8
  %21 = getelementptr inbounds nuw %struct.PGPROC, ptr %20, i32 0, i32 7
  %22 = load i32, ptr %21, align 4
  %23 = load i32, ptr %3, align 4
  %24 = icmp eq i32 %22, %23
  br i1 %24, label %25, label %27

25:                                               ; preds = %15
  %26 = load ptr, ptr %7, align 8
  store ptr %26, ptr %4, align 8
  store i32 2, ptr %6, align 4
  br label %28

27:                                               ; preds = %15
  store i32 0, ptr %6, align 4
  br label %28

28:                                               ; preds = %27, %25
  call void @llvm.lifetime.end.p0(i64 8, ptr %7) #10
  %29 = load i32, ptr %6, align 4
  switch i32 %29, label %38 [
    i32 0, label %30
    i32 2, label %34
  ]

30:                                               ; preds = %28
  br label %31

31:                                               ; preds = %30
  %32 = load i32, ptr %5, align 4
  %33 = add i32 %32, 1
  store i32 %33, ptr %5, align 4
  br label %12, !llvm.loop !26

34:                                               ; preds = %28, %12
  %35 = load ptr, ptr %4, align 8
  store ptr %35, ptr %2, align 8
  store i32 1, ptr %6, align 4
  br label %36

36:                                               ; preds = %34, %10
  call void @llvm.lifetime.end.p0(i64 4, ptr %5) #10
  call void @llvm.lifetime.end.p0(i64 8, ptr %4) #10
  %37 = load ptr, ptr %2, align 8
  ret ptr %37

38:                                               ; preds = %28
  unreachable
}