; Function Attrs: nofree norecurse nosync nounwind memory(read, inaccessiblemem: none) uwtable
define dso_local ptr @AuxiliaryPidGetProc(i32 noundef %0) local_unnamed_addr #8 {
  %2 = icmp eq i32 %0, 0
  br i1 %2, label %.loopexit, label %.preheader

.preheader:                                       ; preds = %1
  %3 = load ptr, ptr @AuxiliaryProcs, align 8
  br label %5

4:                                                ; preds = %5
  %indvars.iv.next = add nuw nsw i64 %indvars.iv, 1
  %exitcond.not = icmp eq i64 %indvars.iv.next, 6
  br i1 %exitcond.not, label %.loopexit, label %5, !llvm.loop !21

5:                                                ; preds = %.preheader, %4
  %indvars.iv = phi i64 [ 0, %.preheader ], [ %indvars.iv.next, %4 ]
  %6 = getelementptr inbounds nuw %struct.PGPROC, ptr %3, i64 %indvars.iv
  %7 = getelementptr inbounds nuw i8, ptr %6, i64 60
  %8 = load i32, ptr %7, align 4
  %9 = icmp eq i32 %8, %0
  br i1 %9, label %.loopexit, label %4

.loopexit:                                        ; preds = %5, %4, %1
  %.0 = phi ptr [ null, %1 ], [ null, %4 ], [ %6, %5 ]
  ret ptr %.0
}